target datalayout = "e-m:e-p270:32:32-p271:32:32-p272:64:64-i64:64-i128:128-f80:128-n8:16:32:64-S128"
target triple = "x86_64-pc-linux-gnu"

%struct.XML_Memory_Handling_Suite = type { ptr, ptr, ptr }
%struct.XML_ParserStruct = type { ptr, ptr, ptr, %struct.XML_Memory_Handling_Suite, ptr, ptr, ptr, i64, ptr, i64, i8, i32, ptr, ptr, ptr, ptr, ptr, ptr, ptr, ptr, ptr, ptr, ptr, ptr, ptr, ptr, ptr, ptr, ptr, ptr, ptr, ptr, ptr, ptr, ptr, ptr, ptr, ptr, %struct.INIT_ENCODING, ptr, ptr, i8, i8, ptr, ptr, ptr, ptr, %struct.prolog_state, ptr, i32, ptr, ptr, ptr, ptr, ptr, i8, i32, ptr, ptr, ptr, ptr, ptr, ptr, ptr, ptr, ptr, i8, i8, ptr, ptr, ptr, ptr, ptr, ptr, i32, i32, i32, ptr, ptr, i64, i8, %struct.position, %struct.STRING_POOL, %struct.STRING_POOL, ptr, i32, i8, ptr, %struct.XML_ParsingStatus, i8, i8, i32, i64, %struct.accounting, %struct.entity_stats }
%struct.INIT_ENCODING = type { %struct.encoding, ptr }
%struct.encoding = type { [4 x ptr], [2 x ptr], ptr, ptr, ptr, ptr, ptr, ptr, ptr, ptr, ptr, ptr, i32, i8, i8 }
%struct.prolog_state = type { ptr, i32, i32, i32, i32, i32 }
%struct.position = type { i64, i64 }
%struct.STRING_POOL = type { ptr, ptr, ptr, ptr, ptr, ptr }
%struct.XML_ParsingStatus = type { i32, i8 }
%struct.accounting = type { i64, i64, i64, float, i64 }
%struct.entity_stats = type { i32, i32, i32, i64 }
%struct.ENTITY = type { ptr, ptr, i32, i32, ptr, ptr, ptr, ptr, i8, i8, i8 }

@.str.90 = private unnamed_addr constant [2 x i8] c"%\00", align 1
@.str.91 = private unnamed_addr constant [2 x i8] c"&\00", align 1
@.str.312 = private unnamed_addr constant [1 x i8] zeroinitializer, align 1
@stderr = external global ptr, align 8
@.str.322 = private unnamed_addr constant [85 x i8] c"expat: Entities(%p): Count %9u, depth %2u/%2u %*s%s%s; %s length %d (xmlparse.c:%d)\0A\00", align 1
@.str.323 = private unnamed_addr constant [6 x i8] c"CLOSE\00", align 1

; Function Attrs: nounwind uwtable
define internal void @entityTrackingReportStats(ptr noundef %0, ptr noundef %1, ptr noundef %2, i32 noundef %3) #0 {
  %5 = alloca ptr, align 8
  %6 = alloca ptr, align 8
  %7 = alloca ptr, align 8
  %8 = alloca i32, align 4
  %9 = alloca ptr, align 8
  store ptr %0, ptr %5, align 8, !tbaa !12
  store ptr %1, ptr %6, align 8, !tbaa !8
  store ptr %2, ptr %7, align 8, !tbaa !3
  store i32 %3, ptr %8, align 4, !tbaa !174
  %10 = load ptr, ptr %5, align 8, !tbaa !12
  %11 = getelementptr inbounds nuw %struct.XML_ParserStruct, ptr %10, i32 0, i32 94
  %12 = getelementptr inbounds nuw %struct.entity_stats, ptr %11, i32 0, i32 3
  %13 = load i64, ptr %12, align 8, !tbaa !151
  %14 = icmp eq i64 %13, 0
  br i1 %14, label %15, label %16

15:                                               ; preds = %4
  br label %53

16:                                               ; preds = %4
  call void @llvm.lifetime.start.p0(i64 8, ptr %9) #11
  %17 = load ptr, ptr %6, align 8, !tbaa !8
  %18 = getelementptr inbounds nuw %struct.ENTITY, ptr %17, i32 0, i32 0
  %19 = load ptr, ptr %18, align 8, !tbaa !262
  store ptr %19, ptr %9, align 8, !tbaa !3
  %20 = load ptr, ptr @stderr, align 8, !tbaa !313
  %21 = load ptr, ptr %5, align 8, !tbaa !12
  %22 = load ptr, ptr %5, align 8, !tbaa !12
  %23 = getelementptr inbounds nuw %struct.XML_ParserStruct, ptr %22, i32 0, i32 94
  %24 = getelementptr inbounds nuw %struct.entity_stats, ptr %23, i32 0, i32 0
  %25 = load i32, ptr %24, align 8, !tbaa !306
  %26 = load ptr, ptr %5, align 8, !tbaa !12
  %27 = getelementptr inbounds nuw %struct.XML_ParserStruct, ptr %26, i32 0, i32 94
  %28 = getelementptr inbounds nuw %struct.entity_stats, ptr %27, i32 0, i32 1
  %29 = load i32, ptr %28, align 4, !tbaa !307
  %30 = load ptr, ptr %5, align 8, !tbaa !12
  %31 = getelementptr inbounds nuw %struct.XML_ParserStruct, ptr %30, i32 0, i32 94
  %32 = getelementptr inbounds nuw %struct.entity_stats, ptr %31, i32 0, i32 2
  %33 = load i32, ptr %32, align 8, !tbaa !308
  %34 = load ptr, ptr %5, align 8, !tbaa !12
  %35 = getelementptr inbounds nuw %struct.XML_ParserStruct, ptr %34, i32 0, i32 94
  %36 = getelementptr inbounds nuw %struct.entity_stats, ptr %35, i32 0, i32 1
  %37 = load i32, ptr %36, align 4, !tbaa !307
  %38 = sub i32 %37, 1
  %39 = mul i32 %38, 2
  %40 = load ptr, ptr %6, align 8, !tbaa !8
  %41 = getelementptr inbounds nuw %struct.ENTITY, ptr %40, i32 0, i32 9
  %42 = load i8, ptr %41, align 1, !tbaa !263
  %43 = zext i8 %42 to i32
  %44 = icmp ne i32 %43, 0
  %45 = select i1 %44, ptr @.str.90, ptr @.str.91
  %46 = load ptr, ptr %9, align 8, !tbaa !3
  %47 = load ptr, ptr %7, align 8, !tbaa !3
  %48 = load ptr, ptr %6, align 8, !tbaa !8
  %49 = getelementptr inbounds nuw %struct.ENTITY, ptr %48, i32 0, i32 2
  %50 = load i32, ptr %49, align 8, !tbaa !261
  %51 = load i32, ptr %8, align 4, !tbaa !174
  %52 = call i32 (ptr, ptr, ...) @fprintf(ptr noundef %20, ptr noundef @.str.322, ptr noundef %21, i32 noundef %25, i32 noundef %29, i32 noundef %33, i32 noundef %39, ptr noundef @.str.312, ptr noundef %45, ptr noundef %46, ptr noundef %47, i32 noundef %50, i32 noundef %51) #11
  call void @llvm.lifetime.end.p0(i64 8, ptr %9) #11
  br label %53

53:                                               ; preds = %16, %15
  ret void
}

; Function Attrs: nounwind uwtable
define internal ptr @getRootParserOf(ptr noundef %0, ptr noundef %1) #0 {
  %3 = alloca ptr, align 8
  %4 = alloca ptr, align 8
  %5 = alloca ptr, align 8
  %6 = alloca i32, align 4
  store ptr %0, ptr %3, align 8, !tbaa !12
  store ptr %1, ptr %4, align 8, !tbaa !220
  call void @llvm.lifetime.start.p0(i64 8, ptr %5) #11
  %7 = load ptr, ptr %3, align 8, !tbaa !12
  store ptr %7, ptr %5, align 8, !tbaa !12
  call void @llvm.lifetime.start.p0(i64 4, ptr %6) #11
  store i32 0, ptr %6, align 4, !tbaa !174
  br label %8

8:                                                ; preds = %13, %2
  %9 = load ptr, ptr %5, align 8, !tbaa !12
  %10 = getelementptr inbounds nuw %struct.XML_ParserStruct, ptr %9, i32 0, i32 87
  %11 = load ptr, ptr %10, align 8, !tbaa !60
  %12 = icmp ne ptr %11, null
  br i1 %12, label %13, label %19

13:                                               ; preds = %8
  %14 = load ptr, ptr %5, align 8, !tbaa !12
  %15 = getelementptr inbounds nuw %struct.XML_ParserStruct, ptr %14, i32 0, i32 87
  %16 = load ptr, ptr %15, align 8, !tbaa !60
  store ptr %16, ptr %5, align 8, !tbaa !12
  %17 = load i32, ptr %6, align 4, !tbaa !174
  %18 = add i32 %17, 1
  store i32 %18, ptr %6, align 4, !tbaa !174
  br label %8, !llvm.loop !312

19:                                               ; preds = %8
  %20 = load ptr, ptr %4, align 8, !tbaa !220
  %21 = icmp ne ptr %20, null
  br i1 %21, label %22, label %25

22:                                               ; preds = %19
  %23 = load i32, ptr %6, align 4, !tbaa !174
  %24 = load ptr, ptr %4, align 8, !tbaa !220
  store i32 %23, ptr %24, align 4, !tbaa !174
  br label %25

25:                                               ; preds = %22, %19
  %26 = load ptr, ptr %5, align 8, !tbaa !12
  call void @llvm.lifetime.end.p0(i64 4, ptr %6) #11
  call void @llvm.lifetime.end.p0(i64 8, ptr %5) #11
  ret ptr %26
}

; Function Attrs: nounwind uwtable
define internal void @entityTrackingOnClose(ptr noundef %0, ptr noundef %1, i32 noundef %2) #0 {
  %4 = alloca ptr, align 8
  %5 = alloca ptr, align 8
  %6 = alloca i32, align 4
  %7 = alloca ptr, align 8
  store ptr %0, ptr %4, align 8, !tbaa !12
  store ptr %1, ptr %5, align 8, !tbaa !8
  store i32 %2, ptr %6, align 4, !tbaa !174
  call void @llvm.lifetime.start.p0(i64 8, ptr %7) #11
  %8 = load ptr, ptr %4, align 8, !tbaa !12
  %9 = call ptr @getRootParserOf(ptr noundef %8, ptr noundef null)
  store ptr %9, ptr %7, align 8, !tbaa !12
  %10 = load ptr, ptr %7, align 8, !tbaa !12
  %11 = load ptr, ptr %5, align 8, !tbaa !8
  %12 = load i32, ptr %6, align 4, !tbaa !174
  call void @entityTrackingReportStats(ptr noundef %10, ptr noundef %11, ptr noundef @.str.323, i32 noundef %12)
  %13 = load ptr, ptr %7, align 8, !tbaa !12
  %14 = getelementptr inbounds nuw %struct.XML_ParserStruct, ptr %13, i32 0, i32 94
  %15 = getelementptr inbounds nuw %struct.entity_stats, ptr %14, i32 0, i32 1
  %16 = load i32, ptr %15, align 4, !tbaa !307
  %17 = add i32 %16, -1
  store i32 %17, ptr %15, align 4, !tbaa !307
  call void @llvm.lifetime.end.p0(i64 8, ptr %7) #11
  ret void
}