; Function Attrs: nofree nounwind uwtable
define internal fastcc void @entityTrackingOnClose(ptr noundef %0, ptr noundef readonly captures(none) %1, i32 noundef range(i32 5562, 6288) %2) unnamed_addr #13 {
  br label %4

4:                                                ; preds = %4, %3
  %.07.i = phi ptr [ %0, %3 ], [ %6, %4 ]
  %5 = getelementptr inbounds nuw i8, ptr %.07.i, i64 912
  %6 = load ptr, ptr %5, align 8, !tbaa !66
  %.not.i = icmp eq ptr %6, null
  br i1 %.not.i, label %getRootParserOf.exit, label %4, !llvm.loop !226

getRootParserOf.exit:                             ; preds = %4
  %7 = getelementptr inbounds nuw i8, ptr %.07.i, i64 1000
  %8 = load i64, ptr %7, align 8, !tbaa !121
  %9 = icmp eq i64 %8, 0
  br i1 %9, label %entityTrackingReportStats.exit, label %10

10:                                               ; preds = %getRootParserOf.exit
  %11 = getelementptr inbounds nuw i8, ptr %.07.i, i64 984
  %12 = load ptr, ptr %1, align 8, !tbaa !256
  %13 = load ptr, ptr @stderr, align 8, !tbaa !194
  %14 = load i32, ptr %11, align 8, !tbaa !291
  %15 = getelementptr inbounds nuw i8, ptr %.07.i, i64 988
  %16 = load i32, ptr %15, align 4, !tbaa !292
  %17 = getelementptr inbounds nuw i8, ptr %.07.i, i64 992
  %18 = load i32, ptr %17, align 8, !tbaa !293
  %19 = shl i32 %16, 1
  %20 = add i32 %19, -2
  %21 = getelementptr inbounds nuw i8, ptr %1, i64 57
  %22 = load i8, ptr %21, align 1, !tbaa !257
  %.not.i4 = icmp eq i8 %22, 0
  %23 = select i1 %.not.i4, ptr @.str.91, ptr @.str.90
  %24 = getelementptr inbounds nuw i8, ptr %1, i64 16
  %25 = load i32, ptr %24, align 8, !tbaa !255
  %26 = tail call i32 (ptr, ptr, ...) @fprintf(ptr noundef %13, ptr noundef nonnull @.str.322, ptr noundef nonnull %.07.i, i32 noundef %14, i32 noundef %16, i32 noundef %18, i32 noundef %20, ptr noundef nonnull @.str.312, ptr noundef nonnull %23, ptr noundef %12, ptr noundef nonnull @.str.323, i32 noundef %25, i32 noundef range(i32 5558, 6288) %2) #28
  br label %entityTrackingReportStats.exit

entityTrackingReportStats.exit:                   ; preds = %getRootParserOf.exit, %10
  %27 = getelementptr inbounds nuw i8, ptr %.07.i, i64 988
  %28 = load i32, ptr %27, align 4, !tbaa !292
  %29 = add i32 %28, -1
  store i32 %29, ptr %27, align 4, !tbaa !292
  ret void
}